target datalayout = "e-m:e-p270:32:32-p271:32:32-p272:64:64-i64:64-i128:128-f80:128-n8:16:32:64-S128"
target triple = "x86_64-pc-linux-gnu"

%struct.strbuf = type { i64, i64, ptr }

; Function Attrs: nounwind uwtable
define dso_local i64 @strbuf_write(ptr noundef %0, ptr noundef %1) #0 {
  %3 = alloca ptr, align 8
  %4 = alloca ptr, align 8
  store ptr %0, ptr %3, align 8, !tbaa !18
  store ptr %1, ptr %4, align 8, !tbaa !52
  %5 = load ptr, ptr %3, align 8, !tbaa !18
  %6 = getelementptr inbounds nuw %struct.strbuf, ptr %5, i32 0, i32 1
  %7 = load i64, ptr %6, align 8, !tbaa !22
  %8 = icmp ne i64 %7, 0
  br i1 %8, label %9, label %18

9:                                                ; preds = %2
  %10 = load ptr, ptr %3, align 8, !tbaa !18
  %11 = getelementptr inbounds nuw %struct.strbuf, ptr %10, i32 0, i32 2
  %12 = load ptr, ptr %11, align 8, !tbaa !23
  %13 = load ptr, ptr %3, align 8, !tbaa !18
  %14 = getelementptr inbounds nuw %struct.strbuf, ptr %13, i32 0, i32 1
  %15 = load i64, ptr %14, align 8, !tbaa !22
  %16 = load ptr, ptr %4, align 8, !tbaa !52
  %17 = call i64 @fwrite(ptr noundef %12, i64 noundef 1, i64 noundef %15, ptr noundef %16)
  br label %19

18:                                               ; preds = %2
  br label %19

19:                                               ; preds = %18, %9
  %20 = phi i64 [ %17, %9 ], [ 0, %18 ]
  ret i64 %20
}