; Function Attrs: nofree nounwind uwtable
define dso_local noundef i64 @strbuf_write(ptr noundef readonly captures(none) %0, ptr noundef captures(none) %1) local_unnamed_addr #19 {
  %3 = getelementptr inbounds nuw i8, ptr %0, i64 8
  %4 = load i64, ptr %3, align 8, !tbaa !16
  %.not = icmp eq i64 %4, 0
  br i1 %.not, label %9, label %5

5:                                                ; preds = %2
  %6 = getelementptr inbounds nuw i8, ptr %0, i64 16
  %7 = load ptr, ptr %6, align 8, !tbaa !12
  %8 = tail call i64 @fwrite(ptr noundef %7, i64 noundef 1, i64 noundef %4, ptr noundef %1)
  br label %9

9:                                                ; preds = %2, %5
  %10 = phi i64 [ %8, %5 ], [ 0, %2 ]
  ret i64 %10
}